target datalayout = "e-m:e-p270:32:32-p271:32:32-p272:64:64-i64:64-i128:128-f80:128-n8:16:32:64-S128"
target triple = "x86_64-pc-linux-gnu"

%struct.PQExpBufferData = type { ptr, i64, i64 }
%struct._stringlist = type { ptr, ptr }

@backend_exec = internal global [1024 x i8] zeroinitializer, align 16
@extra_options = internal global ptr @.str.152, align 8
@.str.62 = private unnamed_addr constant [10 x i8] c"/dev/null\00", align 1
@extra_guc_names = internal global ptr null, align 8
@extra_guc_values = internal global ptr null, align 8
@dynamic_shared_memory_type = internal global ptr null, align 8
@.str.302 = private unnamed_addr constant [125 x i8] c"\22%s\22 --check %s %s -c max_connections=%d -c autovacuum_worker_slots=%d -c shared_buffers=%d -c dynamic_shared_memory_type=%s\00", align 1
@.str.303 = private unnamed_addr constant [28 x i8] c"-F -c log_checkpoints=false\00", align 1
@.str.304 = private unnamed_addr constant [8 x i8] c" -c %s=\00", align 1
@.str.305 = private unnamed_addr constant [20 x i8] c" < \22%s\22 > \22%s\22 2>&1\00", align 1

; Function Attrs: nounwind uwtable
define internal zeroext i1 @test_specific_config_settings(i32 noundef %0, i32 noundef %1, i32 noundef %2) #0 {
  %4 = alloca i32, align 4
  %5 = alloca i32, align 4
  %6 = alloca i32, align 4
  %7 = alloca %struct.PQExpBufferData, align 8
  %8 = alloca ptr, align 8
  %9 = alloca ptr, align 8
  %10 = alloca i32, align 4
  store i32 %0, ptr %4, align 4
  store i32 %1, ptr %5, align 4
  store i32 %2, ptr %6, align 4
  call void @llvm.lifetime.start.p0(i64 24, ptr %7) #10
  call void @llvm.lifetime.start.p0(i64 8, ptr %8) #10
  call void @llvm.lifetime.start.p0(i64 8, ptr %9) #10
  call void @llvm.lifetime.start.p0(i64 4, ptr %10) #10
  call void @initPQExpBuffer(ptr noundef %7)
  %11 = load ptr, ptr @extra_options, align 8
  %12 = load i32, ptr %4, align 4
  %13 = load i32, ptr %5, align 4
  %14 = load i32, ptr %6, align 4
  %15 = load ptr, ptr @dynamic_shared_memory_type, align 8
  call void (ptr, ptr, ...) @printfPQExpBuffer(ptr noundef %7, ptr noundef @.str.302, ptr noundef @backend_exec, ptr noundef @.str.303, ptr noundef %11, i32 noundef %12, i32 noundef %13, i32 noundef %14, ptr noundef %15)
  %16 = load ptr, ptr @extra_guc_names, align 8
  store ptr %16, ptr %8, align 8
  %17 = load ptr, ptr @extra_guc_values, align 8
  store ptr %17, ptr %9, align 8
  br label %18

18:                                               ; preds = %28, %3
  %19 = load ptr, ptr %8, align 8
  %20 = icmp ne ptr %19, null
  br i1 %20, label %21, label %35

21:                                               ; preds = %18
  %22 = load ptr, ptr %8, align 8
  %23 = getelementptr inbounds nuw %struct._stringlist, ptr %22, i32 0, i32 0
  %24 = load ptr, ptr %23, align 8
  call void (ptr, ptr, ...) @appendPQExpBuffer(ptr noundef %7, ptr noundef @.str.304, ptr noundef %24)
  %25 = load ptr, ptr %9, align 8
  %26 = getelementptr inbounds nuw %struct._stringlist, ptr %25, i32 0, i32 0
  %27 = load ptr, ptr %26, align 8
  call void @appendShellString(ptr noundef %7, ptr noundef %27)
  br label %28

28:                                               ; preds = %21
  %29 = load ptr, ptr %8, align 8
  %30 = getelementptr inbounds nuw %struct._stringlist, ptr %29, i32 0, i32 1
  %31 = load ptr, ptr %30, align 8
  store ptr %31, ptr %8, align 8
  %32 = load ptr, ptr %9, align 8
  %33 = getelementptr inbounds nuw %struct._stringlist, ptr %32, i32 0, i32 1
  %34 = load ptr, ptr %33, align 8
  store ptr %34, ptr %9, align 8
  br label %18, !llvm.loop !21

35:                                               ; preds = %18
  call void (ptr, ptr, ...) @appendPQExpBuffer(ptr noundef %7, ptr noundef @.str.305, ptr noundef @.str.62, ptr noundef @.str.62)
  %36 = call i32 @fflush(ptr noundef null)
  %37 = getelementptr inbounds nuw %struct.PQExpBufferData, ptr %7, i32 0, i32 0
  %38 = load ptr, ptr %37, align 8
  %39 = call i32 @system(ptr noundef %38)
  store i32 %39, ptr %10, align 4
  call void @termPQExpBuffer(ptr noundef %7)
  %40 = load i32, ptr %10, align 4
  %41 = icmp eq i32 %40, 0
  call void @llvm.lifetime.end.p0(i64 4, ptr %10) #10
  call void @llvm.lifetime.end.p0(i64 8, ptr %9) #10
  call void @llvm.lifetime.end.p0(i64 8, ptr %8) #10
  call void @llvm.lifetime.end.p0(i64 24, ptr %7) #10
  ret i1 %41
}