; Function Attrs: nounwind uwtable
define internal fastcc noundef zeroext i1 @test_specific_config_settings(i32 noundef %0, i32 noundef range(i32 -357913941, 357913942) %1, i32 noundef %2) unnamed_addr #0 {
  %4 = alloca %struct.PQExpBufferData, align 8
  call void @llvm.lifetime.start.p0(i64 24, ptr nonnull %4) #19
  call void @initPQExpBuffer(ptr noundef nonnull %4) #19
  %5 = load ptr, ptr @extra_options, align 8
  %6 = load ptr, ptr @dynamic_shared_memory_type, align 8
  call void (ptr, ptr, ...) @printfPQExpBuffer(ptr noundef nonnull %4, ptr noundef nonnull @.str.302, ptr noundef nonnull @backend_exec, ptr noundef nonnull @.str.303, ptr noundef %5, i32 noundef %0, i32 noundef %1, i32 noundef %2, ptr noundef %6) #19
  %.09 = load ptr, ptr @extra_guc_names, align 8
  %.not10 = icmp eq ptr %.09, null
  br i1 %.not10, label %._crit_edge, label %.lr.ph

.lr.ph:                                           ; preds = %3, %.lr.ph
  %.012 = phi ptr [ %.0, %.lr.ph ], [ %.09, %3 ]
  %.08.in11 = phi ptr [ %10, %.lr.ph ], [ @extra_guc_values, %3 ]
  %.08 = load ptr, ptr %.08.in11, align 8
  %7 = load ptr, ptr %.012, align 8
  call void (ptr, ptr, ...) @appendPQExpBuffer(ptr noundef nonnull %4, ptr noundef nonnull @.str.304, ptr noundef %7) #19
  %8 = load ptr, ptr %.08, align 8
  call void @appendShellString(ptr noundef nonnull %4, ptr noundef %8) #19
  %9 = getelementptr inbounds nuw i8, ptr %.012, i64 8
  %10 = getelementptr inbounds nuw i8, ptr %.08, i64 8
  %.0 = load ptr, ptr %9, align 8
  %.not = icmp eq ptr %.0, null
  br i1 %.not, label %._crit_edge, label %.lr.ph, !llvm.loop !18

._crit_edge:                                      ; preds = %.lr.ph, %3
  call void (ptr, ptr, ...) @appendPQExpBuffer(ptr noundef nonnull %4, ptr noundef nonnull @.str.305, ptr noundef nonnull @.str.62, ptr noundef nonnull @.str.62) #19
  %11 = call i32 @fflush(ptr noundef null)
  %12 = load ptr, ptr %4, align 8
  %13 = call i32 @system(ptr noundef %12) #19
  call void @termPQExpBuffer(ptr noundef nonnull %4) #19
  %14 = icmp eq i32 %13, 0
  call void @llvm.lifetime.end.p0(i64 24, ptr nonnull %4) #19
  ret i1 %14
}